Certificate:
    Data:
        Version: 1 (0x0)
        Serial Number: 823 (0x337)
        Signature Algorithm: md5WithRSAEncryption
        Issuer: O=TESTNET, CN=TESTNET CA
        Validity
            Not Before: Nov 25 17:53:27 2008 GMT
            Not After : Nov 25 17:53:27 2009 GMT
        Subject: C=GE, O=TESTNET, CN=5#tester5
        Subject Public Key Info:
            Public Key Algorithm: rsaEncryption
            RSA Public Key: (1024 bit)
                Modulus (1024 bit):
                    00:d8:de:11:ad:7e:09:f7:8a:96:04:7b:4f:87:4b:
                    3c:44:d7:00:a6:7e:94:1f:33:93:ee:81:f5:20:b0:
                    b3:c3:8d:f6:01:76:44:e7:b0:e9:b5:14:77:d0:4f:
                    df:93:0a:b4:89:e8:bc:a4:e7:b5:61:50:54:d2:ea:
                    af:68:62:6a:6f:84:ab:d8:17:3d:de:6b:8d:13:9c:
                    aa:8d:f2:12:40:49:a5:d9:0b:6f:c7:ce:0b:9c:4f:
                    89:b3:cb:5d:3f:6a:7c:3a:7d:04:ef:1d:45:df:e1:
                    e2:fa:75:0e:cd:5e:c2:e1:d7:56:db:9f:0d:db:7f:
                    8f:fe:ad:79:e4:bc:78:69:e7
                Exponent: 65537 (0x10001)
    Signature Algorithm: md5WithRSAEncryption
        86:37:80:6d:fe:8a:15:38:ed:6b:3e:1d:41:7f:f0:6a:6d:03:
        f2:45:72:62:52:b1:52:4c:8f:e8:53:24:cf:34:98:13:27:33:
        3f:89:cd:c4:f4:d5:cc:ab:59:ad:b0:56:39:a1:92:82:25:8b:
        49:bf:36:89:32:86:e7:ad:10:7a:85:d9:c8:ac:50:b9:ae:e8:
        60:e6:d2:5e:be:c4:83:0e:e1:34:9c:cb:84:61:3a:59:80:f9:
        92:c2:5b:5f:aa:82:97:e1:c0:20:a2:01:15:e9:54:87:98:a5:
        05:b9:a7:b5:f8:0b:2c:ff:e7:01:f5:c1:07:ef:ff:e1:23:6f:
        b2:da
-----BEGIN CERTIFICATE-----
MIIByjCCATMCAgM3MA0GCSqGSIb3DQEBBAUAMCcxEDAOBgNVBAoTB1RFU1RORVQx
EzARBgNVBAMTClRFU1RORVQgQ0EwHhcNMDgxMTI1MTc1MzI3WhcNMDkxMTI1MTc1
MzI3WjAzMQswCQYDVQQGEwJHRTEQMA4GA1UEChMHVEVTVE5FVDESMBAGA1UEAwwJ
NSN0ZXN0ZXI1MIGfMA0GCSqGSIb3DQEBAQUAA4GNADCBiQKBgQDY3hGtfgn3ipYE
e0+HSzxE1wCmfpQfM5PugfUgsLPDjfYBdkTnsOm1FHfQT9+TCrSJ6Lyk57VhUFTS
6q9oYmpvhKvYFz3ea40TnKqN8hJASaXZC2/HzgucT4mzy10/anw6fQTvHUXf4eL6
dQ7NXsLh11bbnw3bf4/+rXnkvHhp5wIDAQABMA0GCSqGSIb3DQEBBAUAA4GBAIY3
gG3+ihU47Ws+HUF/8GptA/JFcmJSsVJMj+hTJM80mBMnMz+JzcT01cyrWa2wVjmh
koIli0m/NokyhuetEHqF2cisULmu6GDm0l6+xIMO4TScy4RhOlmA+ZLCW1+qgpfh
wCCiARXpVIeYpQW5p7X4Cyz/5wH1wQfv/+Ejb7La
-----END CERTIFICATE-----
