Certificate:
    Data:
        Version: 1 (0x0)
        Serial Number: 825 (0x339)
        Signature Algorithm: md5WithRSAEncryption
        Issuer: O=TESTNET, CN=TESTNET CA
        Validity
            Not Before: Dec 23 22:48:58 2008 GMT
            Not After : Dec 23 22:48:58 2009 GMT
        Subject: O=TESTNET, CN=8#tester8
        Subject Public Key Info:
            Public Key Algorithm: rsaEncryption
            RSA Public Key: (1024 bit)
                Modulus (1024 bit):
                    00:d8:30:82:43:97:15:a9:ce:c2:ed:dd:55:8e:26:
                    5e:83:57:31:a8:e8:a7:63:0d:5e:6d:e1:bc:03:f6:
                    e1:c6:2b:c4:7e:d0:04:ee:a7:9f:9d:6d:a1:68:1c:
                    31:c1:7f:70:0e:e3:51:48:46:d5:01:33:bc:f9:b1:
                    bc:1e:bb:ac:85:de:10:65:1d:55:da:51:b9:d4:c0:
                    4d:07:1f:65:fe:8e:ab:7b:ef:d6:16:67:ab:62:6e:
                    42:f9:98:a6:f2:02:a2:c9:4e:d5:db:fc:3a:cb:df:
                    2b:75:7e:ae:55:8d:7d:6e:a1:4b:95:c4:76:c5:a6:
                    87:6a:12:25:1a:dd:e1:be:a3
                Exponent: 65537 (0x10001)
    Signature Algorithm: md5WithRSAEncryption
        6d:5c:44:a1:e9:98:f8:ed:e7:b9:d9:3f:77:64:de:03:76:4e:
        34:82:22:73:cb:f0:77:1b:b5:52:ff:72:64:1d:b7:cf:ad:b1:
        68:eb:51:50:ca:af:1b:4c:db:d6:3e:cf:b6:45:01:1c:8c:14:
        f0:68:31:5e:38:8c:5a:49:69:0a:bd:9d:5d:8d:7a:a0:8e:03:
        73:86:79:ab:49:f6:4b:ff:96:12:a4:ee:cf:69:b5:33:21:03:
        2c:d2:58:31:33:9b:be:c1:a2:17:f9:06:16:f5:c0:07:e3:a5:
        e5:e5:41:46:40:47:14:58:f9:33:91:08:2f:ae:63:96:47:0f:
        0a:82
-----BEGIN CERTIFICATE-----
MIIBvTCCASYCAgM5MA0GCSqGSIb3DQEBBAUAMCcxEDAOBgNVBAoTB1RFU1RORVQx
EzARBgNVBAMTClRFU1RORVQgQ0EwHhcNMDgxMjIzMjI0ODU4WhcNMDkxMjIzMjI0
ODU4WjAmMRAwDgYDVQQKEwdURVNUTkVUMRIwEAYDVQQDDAk4I3Rlc3RlcjgwgZ8w
DQYJKoZIhvcNAQEBBQADgY0AMIGJAoGBANgwgkOXFanOwu3dVY4mXoNXMajop2MN
Xm3hvAP24cYrxH7QBO6nn51toWgcMcF/cA7jUUhG1QEzvPmxvB67rIXeEGUdVdpR
udTATQcfZf6Oq3vv1hZnq2JuQvmYpvICoslO1dv8OsvfK3V+rlWNfW6hS5XEdsWm
h2oSJRrd4b6jAgMBAAEwDQYJKoZIhvcNAQEEBQADgYEAbVxEoemY+O3nudk/d2Te
A3ZONIIic8vwdxu1Uv9yZB23z62xaOtRUMqvG0zb1j7PtkUBHIwU8GgxXjiMWklp
Cr2dXY16oI4Dc4Z5q0n2S/+WEqTuz2m1MyEDLNJYMTObvsGiF/kGFvXAB+Ol5eVB
RkBHFFj5M5EIL65jlkcPCoI=
-----END CERTIFICATE-----
