Certificate:
    Data:
        Version: 1 (0x0)
        Serial Number: 826 (0x33a)
        Signature Algorithm: md5WithRSAEncryption
        Issuer: O=TESTNET, CN=TESTNET CA
        Validity
            Not Before: Dec 23 22:49:35 2008 GMT
            Not After : Dec 23 22:49:35 2009 GMT
        Subject: O=TESTNET, CN=9#tester9
        Subject Public Key Info:
            Public Key Algorithm: rsaEncryption
            RSA Public Key: (1024 bit)
                Modulus (1024 bit):
                    00:b0:d2:ba:8f:cb:8d:f3:5e:a9:05:e9:22:a0:60:
                    a8:3c:6b:c2:71:d9:f4:eb:85:d6:fd:5d:7a:8a:b4:
                    e3:1c:83:57:a7:77:56:c9:0c:20:4c:33:d9:40:92:
                    64:f6:a2:8c:a9:77:1d:fe:b2:b9:ae:30:c8:b2:47:
                    d4:2e:2f:52:30:d8:14:e3:33:8a:47:27:68:47:4e:
                    9c:c0:72:08:98:27:c4:d1:40:eb:97:8f:e7:75:2a:
                    f3:26:ea:7f:d4:01:3d:92:2f:e0:45:b3:97:b0:ed:
                    19:b2:5b:f8:49:52:38:3a:c3:33:cc:c0:15:42:2b:
                    dc:f9:cb:73:94:1b:23:92:cf
                Exponent: 65537 (0x10001)
    Signature Algorithm: md5WithRSAEncryption
        5a:17:8d:3c:f4:82:2e:1e:de:37:f7:21:49:2f:65:ca:88:c9:
        7e:cf:a4:92:6a:25:d7:1b:3d:35:b1:88:ca:41:6a:a7:d2:ea:
        45:53:39:b0:eb:99:ed:ab:10:46:71:0a:61:a4:a2:6f:9a:c1:
        2c:87:9e:c3:0a:b6:36:10:e9:91:e8:25:6b:da:9a:ec:09:55:
        ea:51:6c:c9:07:21:b1:e6:83:33:1d:3a:91:4f:26:bd:d6:29:
        e9:72:0f:72:51:31:c4:2a:29:92:ca:bb:5e:73:5c:f9:4d:19:
        57:d0:95:ab:bc:f0:30:6c:9f:bd:5e:a7:4d:16:0f:b3:9e:20:
        79:16
-----BEGIN CERTIFICATE-----
MIIBvTCCASYCAgM6MA0GCSqGSIb3DQEBBAUAMCcxEDAOBgNVBAoTB1RFU1RORVQx
EzARBgNVBAMTClRFU1RORVQgQ0EwHhcNMDgxMjIzMjI0OTM1WhcNMDkxMjIzMjI0
OTM1WjAmMRAwDgYDVQQKEwdURVNUTkVUMRIwEAYDVQQDDAk5I3Rlc3RlcjkwgZ8w
DQYJKoZIhvcNAQEBBQADgY0AMIGJAoGBALDSuo/LjfNeqQXpIqBgqDxrwnHZ9OuF
1v1deoq04xyDV6d3VskMIEwz2UCSZPaijKl3Hf6yua4wyLJH1C4vUjDYFOMzikcn
aEdOnMByCJgnxNFA65eP53Uq8ybqf9QBPZIv4EWzl7DtGbJb+ElSODrDM8zAFUIr
3PnLc5QbI5LPAgMBAAEwDQYJKoZIhvcNAQEEBQADgYEAWheNPPSCLh7eN/chSS9l
yojJfs+kkmol1xs9NbGIykFqp9LqRVM5sOuZ7asQRnEKYaSib5rBLIeewwq2NhDp
kegla9qa7AlV6lFsyQchseaDMx06kU8mvdYp6XIPclExxCopksq7XnNc+U0ZV9CV
q7zwMGyfvV6nTRYPs54geRY=
-----END CERTIFICATE-----
