Certificate:
    Data:
        Version: 1 (0x0)
        Serial Number: 827 (0x33b)
        Signature Algorithm: sha1WithRSAEncryption
        Issuer: O=Testing certificates, CN=TEST ROOT CERT
        Validity
            Not Before: Aug  1 23:51:12 2009 GMT
            Not After : Dec 26 23:51:12 2010 GMT
        Subject: O=TESTLAB, CN=10#tester10
        Subject Public Key Info:
            Public Key Algorithm: rsaEncryption
            RSA Public Key: (1024 bit)
                Modulus (1024 bit):
                    00:fa:d3:3f:4b:11:b2:ec:e6:a9:be:68:22:9c:ee:
                    e3:ad:58:b1:bf:95:33:7b:0e:cc:3a:30:51:ad:be:
                    a2:af:c7:89:1d:70:4b:98:f4:e5:db:d8:34:09:30:
                    85:0e:7d:6b:0e:bb:21:73:38:dc:cb:41:92:2a:5f:
                    b6:9f:53:80:a0:0f:a7:dd:86:17:02:ea:5a:fe:88:
                    df:c9:3e:72:20:e3:3d:3d:9b:60:99:8f:bf:3a:34:
                    26:5d:07:e8:02:3c:32:ea:7d:48:ce:ee:1a:43:01:
                    64:cc:55:81:6b:11:ec:61:1a:e6:07:be:06:b6:4a:
                    7e:75:76:05:f1:d3:60:00:ff
                Exponent: 65537 (0x10001)
    Signature Algorithm: sha1WithRSAEncryption
        00:1e:27:4c:bf:cb:95:f4:89:2c:b3:d2:52:6b:04:2f:87:91:
        07:b2:75:a7:00:7d:82:37:e8:a7:f8:6a:87:cb:27:76:11:05:
        0f:fb:25:f7:03:6e:60:44:6d:92:09:96:5f:f4:15:ce:26:37:
        8c:cc:36:92:49:1a:c9:5f:7b:1e:b0:3e:f5:bc:41:2e:0a:b0:
        6e:e1:5b:73:c6:26:f7:f3:8b:17:11:70:71:d5:5d:f4:32:7a:
        2a:ed:43:38:bf:5a:73:42:d6:f8:44:78:24:79:d5:ea:cf:cd:
        64:54:d4:df:7e:e3:05:9c:de:d9:8c:71:3a:62:27:30:cd:74:
        3c:15
-----BEGIN CERTIFICATE-----
MIIB0DCCATkCAgM7MA0GCSqGSIb3DQEBBQUAMDgxHTAbBgNVBAoTFFRlc3Rpbmcg
Y2VydGlmaWNhdGVzMRcwFQYDVQQDEw5URVNUIFJPT1QgQ0VSVDAeFw0wOTA4MDEy
MzUxMTJaFw0xMDEyMjYyMzUxMTJaMCgxEDAOBgNVBAoTB1RFU1RMQUIxFDASBgNV
BAMMCzEwI3Rlc3RlcjEwMIGfMA0GCSqGSIb3DQEBAQUAA4GNADCBiQKBgQD60z9L
EbLs5qm+aCKc7uOtWLG/lTN7Dsw6MFGtvqKvx4kdcEuY9OXb2DQJMIUOfWsOuyFz
ONzLQZIqX7afU4CgD6fdhhcC6lr+iN/JPnIg4z09m2CZj786NCZdB+gCPDLqfUjO
7hpDAWTMVYFrEexhGuYHvga2Sn51dgXx02AA/wIDAQABMA0GCSqGSIb3DQEBBQUA
A4GBAAAeJ0y/y5X0iSyz0lJrBC+HkQeydacAfYI36Kf4aofLJ3YRBQ/7JfcDbmBE
bZIJll/0Fc4mN4zMNpJJGslfex6wPvW8QS4KsG7hW3PGJvfzixcRcHHVXfQyeirt
Qzi/WnNC1vhEeCR51erPzWRU1N9+4wWc3tmMcTpiJzDNdDwV
-----END CERTIFICATE-----
