Certificate:
    Data:
        Version: 1 (0x0)
        Serial Number: 829 (0x33d)
        Signature Algorithm: sha1WithRSAEncryption
        Issuer: C=GE, ST=Georgia, CN=Pica Pica Test CA
        Validity
            Not Before: Mar  6 20:40:52 2011 GMT
            Not After : Apr  7 20:40:52 2021 GMT
        Subject: ST=Georgia, CN=12#\xD1\x82\xD0\xB5\xD1\x81\xD1\x82\xD0\xB5\xD1\x8012
        Subject Public Key Info:
            Public Key Algorithm: rsaEncryption
            RSA Public Key: (4096 bit)
                Modulus (4096 bit):
                    00:92:bc:3b:f1:a7:33:44:ea:9a:a2:90:f5:a2:ec:
                    30:41:83:4d:63:2a:28:00:9e:bb:37:f6:05:e8:84:
                    e2:d0:9b:1e:cf:db:49:6f:bc:f1:71:2a:62:ce:6b:
                    aa:d1:c8:aa:75:79:eb:e0:0b:ef:12:19:8b:44:d8:
                    dd:71:ca:ef:6d:6e:db:38:18:e0:56:6a:2c:66:76:
                    86:73:fa:97:06:2e:8e:d8:bf:5f:b5:eb:65:4c:a8:
                    fd:6b:b5:3e:8f:db:e4:0f:2a:e6:9e:a1:3e:55:a0:
                    74:d6:0d:55:ca:8f:bc:39:75:fb:29:f3:4d:10:7a:
                    b8:c9:e5:4d:bf:8b:b6:7d:c6:26:e5:12:2d:94:fb:
                    87:1f:da:cb:c3:c8:0e:20:64:0f:e8:d8:4e:8d:1a:
                    51:76:b0:6a:fc:25:b8:bf:5c:7a:b4:05:ce:5e:52:
                    bb:e9:1f:4d:b8:20:02:80:74:94:3c:92:de:f0:4b:
                    98:6e:d0:93:94:b8:ff:79:c1:22:86:81:b9:d6:64:
                    8c:cf:91:20:7c:f8:89:88:f0:04:63:86:55:f0:ed:
                    b9:fa:c8:b6:1c:5b:1d:e8:7d:16:84:90:fc:21:f2:
                    ce:b7:ad:f3:1b:16:04:3c:1d:d2:0f:8c:90:2d:20:
                    e8:93:b3:a9:3b:91:47:f9:cb:32:c8:4d:00:fb:ce:
                    a0:8d:e2:79:61:2a:20:ab:3e:c3:4b:3f:ea:c2:c2:
                    d0:78:48:8c:62:92:02:6d:6e:0c:a9:5e:52:c8:b1:
                    3a:e8:0c:2e:4b:53:db:b2:f6:c1:86:96:32:11:34:
                    88:ae:9a:a0:f5:9c:15:77:26:11:8c:30:be:67:d4:
                    ac:f4:44:f3:28:f2:01:35:69:d4:72:e0:d8:bc:b5:
                    f1:11:70:39:7a:04:68:d6:8e:e2:52:2e:ff:07:26:
                    27:72:8e:c3:c6:54:6b:cc:ea:e1:dc:74:4d:7c:f8:
                    d7:0e:02:18:80:48:a7:cb:78:30:00:59:61:27:9b:
                    9c:74:d0:7c:ea:56:f9:78:25:d8:3c:38:f3:20:2d:
                    b5:dc:71:7b:2c:5c:76:eb:0e:07:33:f1:03:76:98:
                    4b:c2:02:c7:1c:b9:7d:c3:55:4e:9d:f8:b8:f7:99:
                    a3:d2:ea:f0:21:77:a3:35:bc:09:a8:7e:af:6a:b7:
                    10:0b:a6:c8:50:ea:52:6f:c7:c3:83:8a:7e:7f:22:
                    22:cd:40:d9:0a:33:0d:68:b3:b2:c8:84:7e:47:8c:
                    23:0a:b1:f0:b9:6b:92:b8:7e:a9:80:92:06:7f:8a:
                    4b:9e:1a:22:24:d2:98:38:38:92:ab:b1:8f:b1:a3:
                    1d:f6:e0:4c:21:44:d5:81:8f:98:62:68:f2:c6:7c:
                    53:c8:07
                Exponent: 65537 (0x10001)
    Signature Algorithm: sha1WithRSAEncryption
        68:55:c8:31:fc:df:a8:30:ec:b5:cf:88:26:38:e5:39:34:85:
        08:4f:c3:f0:17:ca:d4:1a:62:5d:8e:98:ac:1d:b7:16:a3:74:
        78:1f:e6:e2:f6:12:1e:14:1d:e3:86:68:52:2c:11:80:41:3e:
        ed:2e:be:23:53:40:d8:8e:17:20:af:7f:e3:20:7b:f4:2c:b2:
        84:93:3c:31:19:2a:70:b4:e7:a3:f7:dd:19:45:f8:5d:c2:da:
        1a:56:22:48:26:4e:d2:cc:be:60:ba:00:c3:3c:c4:77:56:8e:
        1d:33:7d:0b:c1:6f:bc:61:5a:2f:a4:19:91:3a:5b:d2:d9:9e:
        7e:87:6a:79:80:f4:69:66:a0:77:61:d3:33:de:c1:1f:09:e3:
        3b:9e:b1:c3:c8:3d:e5:ae:76:b8:7d:73:4e:2b:ca:b2:e7:dc:
        01:5a:fa:b1:0b:e3:0d:af:2a:65:86:66:a3:0d:9d:7a:bc:f1:
        55:f0:24:45:a0:ed:01:f0:b4:79:cb:13:b6:48:4d:12:8b:ed:
        bf:96:5b:b8:89:4d:15:96:75:1c:2b:91:0a:ff:43:6a:c0:8a:
        1c:fd:da:25:f2:a5:c4:83:2f:36:6a:3a:50:72:2a:e2:bd:31:
        c4:fb:56:5b:b5:b1:25:d3:7e:25:35:b9:08:c1:cf:4d:5f:29:
        86:a5:1e:a9:9b:6b:14:75:63:fe:fd:47:24:df:10:2d:1a:3e:
        f5:28:f4:0f:80:6c:d3:37:d3:66:9d:08:dc:c4:30:7a:76:8d:
        32:b3:a1:ee:c5:e9:8d:dd:93:87:c6:91:8b:94:af:7f:a2:b3:
        b5:91:53:2c:c6:b7:2a:05:a1:74:b2:5c:12:80:43:cc:1a:6b:
        6c:f5:66:d7:60:b2:04:e5:cf:e2:59:2e:44:5b:c9:48:b4:d3:
        4d:76:15:c7:85:2d:38:de:64:b3:03:7d:7d:82:8a:5f:a4:04:
        ed:f3:21:35:4d:7e:de:a0:08:f8:b0:c5:9e:a0:d5:a9:a4:bd:
        ac:c0:9a:cd:c4:21:75:52:cc:0c:53:87:b7:68:f8:6c:c0:49:
        0b:30:fd:20:6e:05:de:56:55:30:d8:ce:f9:62:60:50:af:5d:
        59:fa:d0:f5:76:e1:42:50:7c:59:8f:b6:a4:b9:de:3d:72:f9:
        d7:86:11:1f:f3:d0:b4:c9:30:b1:3e:37:04:5d:aa:09:06:53:
        3a:67:be:1d:8a:95:99:d7:ee:4a:69:9f:7a:a2:52:65:b0:87:
        89:2f:e2:dc:47:af:9d:4b:d0:0b:29:1b:d6:1d:95:a7:44:18:
        99:c1:31:58:d7:96:6c:68:56:78:14:4a:27:ad:79:2c:c4:f7:
        72:ae:b3:63:71:e1:10:f2:36:4e:0e:0b:3d:05:18:71:0b:3d:
        2d:44:a9:48:03:83:7c:72:51:5d:78:55:9d:f2:8c:32:56:d1:
        60:51:d1:53:8a:c0:56:e2:39:15:c3:c3:fb:57:e4:5f:3d:1c:
        b5:62:e2:e3:da:ea:fe:b3:54:24:7e:44:55:24:56:29:91:2f:
        56:ce:ef:f7:da:f1:ad:04:48:92:94:cb:3e:45:3f:34:bf:78:
        0a:f6:42:bd:2d:fc:c0:c1:a6:c3:00:9a:29:7a:c0:b7:06:23:
        3b:28:44:fd:e3:6b:b7:0e:aa:39:1f:20:aa:22:b1:56:0b:d1:
        67:e6:8a:95:cb:f6:76:9d:87:1e:01:0e:dd:0c:d9:13:3b:ca:
        54:0d:f1:c4:5a:49:05:ba:d5:ad:38:12:2e:81:7d:6f:c3:12:
        34:6a:02:28:b2:8f:b0:76:02:98:ab:a8:a4:f5:97:d7:5f:84:
        94:87:f7:35:c0:ab:53:01:98:1c:63:35:eb:f5:bc:6f:6f:68:
        7f:ba:5b:b2:32:fb:11:15:6b:1e:ae:8a:07:cd:43:4e:b1:4c:
        e2:4c:ab:46:be:8f:76:6f:40:8b:7a:f3:43:7c:3e:8b:7c:2b:
        90:6d:d1:ac:11:4c:69:5d:ea:2a:78:46:bd:f2:5f:9e:f0:26:
        d4:8f:63:4f:fd:69:5b:ce:52:bf:91:0a:3a:42:bd:c1:66:00:
        fb:49:38:9b:ba:b1:b1:b2:36:7b:e9:e7:c4:de:45:1e:46:6d:
        05:26:8a:31:cc:45:dc:bc:ab:b2:4c:40:3c:e3:d8:48:c9:ea:
        31:36:85:6b:ce:3a:de:f8:50:4c:57:de:10:74:6f:c7:69:3c:
        f4:90:98:b1:6e:7d:44:d4:58:e4:8e:89:a8:96:50:a5:f9:20:
        5c:77:6f:7f:12:c9:e6:93:0c:0c:96:c2:1a:87:87:ca:44:c9:
        5a:e2:c6:b3:9d:65:b6:af:69:75:5c:1f:2e:a9:76:85:af:df:
        ba:a4:d7:be:1d:96:de:bf:19:fe:46:6a:9e:8c:1e:0a:f2:19:
        53:e2:0a:74:84:3c:24:53:95:fb:4a:66:5e:4a:e9:e7:ef:dd:
        eb:99:bb:66:a2:26:2f:ef:0a:00:9a:8b:d8:c4:c1:d8:d5:7c:
        46:c0:aa:2d:c1:c4:3c:31:ee:6e:6a:54:27:a0:e2:67:76:b9:
        2b:55:33:a7:01:06:7b:0c:94:4e:72:d3:11:63:63:ae:a5:b6:
        a5:cc:81:9b:c8:70:5a:25:c0:2c:20:23:d5:5f:9e:b0:21:5d:
        64:59:67:22:ee:19:7a:c1:05:69:03:f0:64:22:dc:af:25:46:
        39:a0:0e:0e:ba:f8:86:55:cd:44:15:0a:be:b0:99:9f
-----BEGIN CERTIFICATE-----
MIIG3jCCAsYCAgM9MA0GCSqGSIb3DQEBBQUAMDsxCzAJBgNVBAYTAkdFMRAwDgYD
VQQIEwdHZW9yZ2lhMRowGAYDVQQDExFQaWNhIFBpY2EgVGVzdCBDQTAeFw0xMTAz
MDYyMDQwNTJaFw0yMTA0MDcyMDQwNTJaMC4xEDAOBgNVBAgTB0dlb3JnaWExGjAY
BgNVBAMMETEyI9GC0LXRgdGC0LXRgDEyMIICIjANBgkqhkiG9w0BAQEFAAOCAg8A
MIICCgKCAgEAkrw78aczROqaopD1ouwwQYNNYyooAJ67N/YF6ITi0Jsez9tJb7zx
cSpizmuq0ciqdXnr4AvvEhmLRNjdccrvbW7bOBjgVmosZnaGc/qXBi6O2L9ftetl
TKj9a7U+j9vkDyrmnqE+VaB01g1Vyo+8OXX7KfNNEHq4yeVNv4u2fcYm5RItlPuH
H9rLw8gOIGQP6NhOjRpRdrBq/CW4v1x6tAXOXlK76R9NuCACgHSUPJLe8EuYbtCT
lLj/ecEihoG51mSMz5EgfPiJiPAEY4ZV8O25+si2HFsd6H0WhJD8IfLOt63zGxYE
PB3SD4yQLSDok7OpO5FH+csyyE0A+86gjeJ5YSogqz7DSz/qwsLQeEiMYpICbW4M
qV5SyLE66AwuS1PbsvbBhpYyETSIrpqg9ZwVdyYRjDC+Z9Ss9ETzKPIBNWnUcuDY
vLXxEXA5egRo1o7iUi7/ByYnco7DxlRrzOrh3HRNfPjXDgIYgEiny3gwAFlhJ5uc
dNB86lb5eCXYPDjzIC213HF7LFx26w4HM/EDdphLwgLHHLl9w1VOnfi495mj0urw
IXejNbwJqH6varcQC6bIUOpSb8fDg4p+fyIizUDZCjMNaLOyyIR+R4wjCrHwuWuS
uH6pgJIGf4pLnhoiJNKYODiSq7GPsaMd9uBMIUTVgY+YYmjyxnxTyAcCAwEAATAN
BgkqhkiG9w0BAQUFAAOCBAEAaFXIMfzfqDDstc+IJjjlOTSFCE/D8BfK1BpiXY6Y
rB23FqN0eB/m4vYSHhQd44ZoUiwRgEE+7S6+I1NA2I4XIK9/4yB79CyyhJM8MRkq
cLTno/fdGUX4XcLaGlYiSCZO0sy+YLoAwzzEd1aOHTN9C8FvvGFaL6QZkTpb0tme
fodqeYD0aWagd2HTM97BHwnjO56xw8g95a52uH1zTivKsufcAVr6sQvjDa8qZYZm
ow2derzxVfAkRaDtAfC0ecsTtkhNEovtv5ZbuIlNFZZ1HCuRCv9DasCKHP3aJfKl
xIMvNmo6UHIq4r0xxPtWW7WxJdN+JTW5CMHPTV8phqUeqZtrFHVj/v1HJN8QLRo+
9Sj0D4Bs0zfTZp0I3MQwenaNMrOh7sXpjd2Th8aRi5Svf6KztZFTLMa3KgWhdLJc
EoBDzBprbPVm12CyBOXP4lkuRFvJSLTTTXYVx4UtON5kswN9fYKKX6QE7fMhNU1+
3qAI+LDFnqDVqaS9rMCazcQhdVLMDFOHt2j4bMBJCzD9IG4F3lZVMNjO+WJgUK9d
WfrQ9XbhQlB8WY+2pLnePXL514YRH/PQtMkwsT43BF2qCQZTOme+HYqVmdfuSmmf
eqJSZbCHiS/i3EevnUvQCykb1h2Vp0QYmcExWNeWbGhWeBRKJ615LMT3cq6zY3Hh
EPI2Tg4LPQUYcQs9LUSpSAODfHJRXXhVnfKMMlbRYFHRU4rAVuI5FcPD+1fkXz0c
tWLi49rq/rNUJH5EVSRWKZEvVs7v99rxrQRIkpTLPkU/NL94CvZCvS38wMGmwwCa
KXrAtwYjOyhE/eNrtw6qOR8gqiKxVgvRZ+aKlcv2dp2HHgEO3QzZEzvKVA3xxFpJ
BbrVrTgSLoF9b8MSNGoCKLKPsHYCmKuopPWX11+ElIf3NcCrUwGYHGM16/W8b29o
f7pbsjL7ERVrHq6KB81DTrFM4kyrRr6Pdm9Ai3rzQ3w+i3wrkG3RrBFMaV3qKnhG
vfJfnvAm1I9jT/1pW85Sv5EKOkK9wWYA+0k4m7qxsbI2e+nnxN5FHkZtBSaKMcxF
3LyrskxAPOPYSMnqMTaFa8463vhQTFfeEHRvx2k89JCYsW59RNRY5I6JqJZQpfkg
XHdvfxLJ5pMMDJbCGoeHykTJWuLGs51ltq9pdVwfLql2ha/fuqTXvh2W3r8Z/kZq
noweCvIZU+IKdIQ8JFOV+0pmXkrp5+/d65m7ZqImL+8KAJqL2MTB2NV8RsCqLcHE
PDHubmpUJ6DiZ3a5K1UzpwEGewyUTnLTEWNjrqW2pcyBm8hwWiXALCAj1V+esCFd
ZFlnIu4ZesEFaQPwZCLcryVGOaAODrr4hlXNRBUKvrCZnw==
-----END CERTIFICATE-----
