Certificate:
    Data:
        Version: 1 (0x0)
        Serial Number: 830 (0x33e)
        Signature Algorithm: sha1WithRSAEncryption
        Issuer: C=GE, ST=Georgia, CN=Pica Pica Test CA
        Validity
            Not Before: Mar  6 20:45:25 2011 GMT
            Not After : Apr  7 20:45:25 2021 GMT
        Subject: C=GE, ST=Georgia, O=\xD1\x82\xD0\xB5\xD1\x81\xD1\x82\xD0\xBE\xD0\xB2\xD0\xB0\xD1\x8F \xD0\xBB\xD0\xB0\xD0\xB1\xD0\xBE\xD1\x80\xD0\xB0\xD1\x82\xD0\xBE\xD1\x80\xD0\xB8\xD1\x8F, CN=13#\xE1\x83\xA2\xE1\x83\x94\xE1\x83\xA1\xE1\x83\xA2\xE1\x83\x94\xE1\x83\xA0\xE1\x83\x98N13
        Subject Public Key Info:
            Public Key Algorithm: rsaEncryption
            RSA Public Key: (4096 bit)
                Modulus (4096 bit):
                    00:ce:32:c4:c9:fc:3e:9d:da:94:a8:8d:b6:f0:1a:
                    45:4b:8d:14:51:86:bc:c4:05:d3:3c:d3:5f:17:e3:
                    60:7e:71:63:51:7c:f4:5c:23:9b:d4:61:c7:49:93:
                    04:c2:11:d5:a6:95:25:00:14:f2:c2:b1:03:5a:39:
                    31:00:85:7f:7f:35:25:e2:7d:02:41:92:cc:10:12:
                    a8:6e:ce:15:d5:26:17:c7:44:7a:f1:b4:37:01:57:
                    f9:c9:ad:9c:31:9d:27:a2:e1:15:e9:a9:d0:bb:4c:
                    a9:2d:91:99:4c:42:a1:fd:36:66:1a:17:dd:0c:96:
                    51:ca:d0:16:83:45:6b:28:8b:89:f1:5d:3b:e1:55:
                    18:e2:a5:2b:b6:c5:ac:a9:5f:f7:0f:9c:3a:5c:b0:
                    4a:37:67:9e:79:46:dc:7e:10:6e:af:fd:82:3c:9a:
                    19:ad:2d:9c:b4:b8:b8:61:6b:6a:53:62:82:97:04:
                    16:98:f2:ee:f4:e1:2d:25:39:d8:37:e9:f4:b2:1e:
                    33:22:c5:5f:56:11:3b:4c:34:ef:df:1f:ff:3c:65:
                    79:15:8c:53:64:ad:d9:a1:38:e2:80:ab:a0:2f:ac:
                    d0:26:3a:b0:cc:cd:28:92:59:69:4a:bd:66:e7:4b:
                    15:db:a9:8c:af:18:e6:d6:9d:b8:be:47:88:9c:b7:
                    75:c8:6e:bd:01:12:23:93:ce:37:86:01:fc:b1:ff:
                    d5:54:38:bf:ff:ac:aa:50:d4:4f:bf:0b:86:0f:08:
                    bf:1e:4b:8a:3f:cb:3b:21:3b:5a:0d:39:dd:fe:f1:
                    ed:38:d1:56:fe:8e:27:a0:f2:ab:96:e7:07:5b:49:
                    67:0d:e3:b4:bf:2c:35:55:15:e0:25:38:49:89:79:
                    71:6c:12:0b:53:ab:8a:b5:73:3f:4b:3f:38:c4:63:
                    76:c9:3f:db:34:70:fd:ba:a7:a6:7f:e1:8f:c5:1e:
                    e0:59:1c:1a:3f:d7:3b:e6:a6:97:03:d2:e1:bf:d9:
                    6c:b5:54:04:4f:0b:22:d9:43:c5:71:b7:47:df:a3:
                    5f:c1:f4:15:03:ad:5a:25:af:0c:9b:ca:14:f3:ec:
                    e1:c4:37:50:64:70:10:e9:9f:c7:35:88:d3:93:49:
                    ce:18:35:69:ce:70:e3:4d:f8:04:0e:e1:88:d8:c3:
                    f5:0c:e3:20:32:e8:4d:b5:67:22:6e:bc:38:6d:54:
                    65:73:a7:e4:83:fc:2c:dc:88:27:ef:08:98:9a:31:
                    3e:61:90:87:55:e4:a0:28:a7:13:aa:b9:4e:3a:b7:
                    31:71:6e:6e:b9:e0:f1:c1:b7:38:3d:3b:f4:fb:8e:
                    6d:f8:ce:8b:52:e2:9b:2b:7c:c1:db:5e:3b:86:47:
                    e4:18:15
                Exponent: 65537 (0x10001)
    Signature Algorithm: sha1WithRSAEncryption
        56:f0:e1:9d:66:e3:a1:05:c5:2e:73:89:32:a2:48:05:4e:cd:
        31:2e:32:70:09:4e:73:b1:c5:2e:c7:cf:11:a3:76:6b:b2:d9:
        95:c5:69:66:40:a2:e2:a2:91:06:bc:62:38:f2:30:81:9f:fe:
        ea:7b:27:9a:81:8e:0d:ba:6e:fa:72:3b:a1:d7:33:25:98:e0:
        74:31:fe:fa:bf:a6:14:8f:f2:10:a9:b9:c4:63:d9:3c:4f:c1:
        cb:6f:8d:7d:57:3a:b4:99:b2:4d:58:9f:60:3f:bf:82:2e:5a:
        c2:0e:66:83:cb:66:30:1e:41:67:1b:6d:1b:d5:34:ca:00:f6:
        71:69:68:1c:4e:7e:0d:1a:14:b3:ec:61:a2:9c:98:f6:17:f0:
        6f:b6:64:f7:b6:88:4a:63:86:c1:b3:16:40:ef:80:22:a9:ae:
        28:4e:f1:48:1a:3b:14:a9:b5:ce:4d:7a:ab:56:13:cc:1c:86:
        1a:b1:d9:9b:ae:93:ce:08:e6:b7:d1:5c:bd:7f:19:90:b1:39:
        61:2d:06:2b:a8:b5:07:dd:d9:f3:10:7e:9f:b8:9b:38:e6:7b:
        c6:e3:f4:ba:1b:9d:a3:1d:42:06:53:0d:22:9a:a7:68:ac:25:
        17:b7:e8:be:42:e8:86:2b:b6:68:51:47:86:13:7e:83:57:aa:
        6b:66:35:31:ad:ac:ce:2c:bf:8c:ad:92:2e:41:9c:a9:7a:63:
        1a:2c:85:29:da:b3:23:54:de:cb:23:0c:1d:b1:23:b6:4c:fd:
        c2:29:e3:69:50:93:6a:cc:b0:9f:f8:b8:5c:80:61:b3:a8:0d:
        48:33:b8:7f:04:94:ea:23:35:e0:29:10:16:a6:b4:52:87:34:
        dd:5b:0e:d2:c0:03:65:48:ed:4c:fb:d1:97:04:de:5f:b3:d6:
        78:44:41:95:7a:4e:fd:4f:12:83:c3:e5:b8:95:76:57:83:8d:
        a1:96:1d:35:b6:4c:25:3e:1b:66:07:46:38:22:6d:c1:6a:21:
        68:31:e1:29:a0:ee:b4:dd:a0:48:03:ce:72:aa:2a:e5:a0:ec:
        d6:a6:ca:1e:a9:fc:2f:35:e5:3d:f8:e6:f4:d4:cf:ed:4b:f0:
        65:36:f4:3c:ef:32:c8:17:18:18:62:4a:06:61:92:59:80:3e:
        c5:c0:1e:4a:37:fa:70:68:c0:62:e0:ee:4b:51:ec:87:02:e5:
        2f:2b:48:a5:72:f2:91:c8:fd:10:4b:a5:6f:ea:93:01:af:db:
        05:3a:f7:7c:07:53:98:da:c5:c0:7d:df:45:7e:3e:09:54:b9:
        77:20:85:b9:41:35:7d:29:f7:c9:f6:f6:4f:db:bd:04:03:8c:
        04:5c:35:7f:7c:5d:b6:6d:7a:3e:ef:6c:4d:44:b5:24:0d:80:
        fe:e4:23:e2:ec:3b:22:41:8a:9b:c5:c5:f3:d3:47:ef:89:e9:
        64:e1:96:e6:59:0e:06:ba:65:98:2a:04:05:e7:1a:7b:8c:ea:
        16:e0:31:a3:33:76:62:f6:33:87:20:57:85:9c:b5:05:cc:7b:
        31:a4:cc:4c:92:47:14:bb:80:45:90:b4:b4:9e:17:09:52:0e:
        82:bd:6e:41:53:6f:cb:23:3f:76:6c:c2:4b:65:53:bb:f1:8d:
        b7:61:d5:71:85:0b:4e:d0:4d:f8:59:48:b1:39:23:d1:53:87:
        c6:f9:e4:64:09:b4:30:42:bd:67:60:b9:77:3c:57:90:96:db:
        f1:ef:fa:33:4c:28:85:5b:eb:32:be:ed:cc:73:f7:4e:9c:08:
        86:40:b0:fe:dd:0d:48:89:22:e5:b8:4f:ab:e2:08:43:08:02:
        a7:8a:2a:56:40:6d:53:b7:3e:7d:66:6c:dc:03:4c:b6:81:41:
        d7:b6:9d:82:b4:ba:04:44:f2:3a:c6:f7:aa:29:3a:4e:81:5b:
        77:b7:c8:f0:fb:64:79:30:f6:87:55:12:d6:a2:d8:b3:44:bf:
        71:2e:52:dd:b2:3b:d6:f8:7a:c5:24:bc:3c:76:82:8c:0b:90:
        9b:1f:a1:4a:68:a8:1b:1d:5b:34:d0:e3:30:2a:2a:8a:35:dd:
        ad:ec:2d:53:4e:cc:57:47:ff:16:ad:af:be:75:06:4f:dd:e4:
        15:b1:8a:77:fb:bd:43:2f:45:63:a4:4f:53:ea:5f:09:43:ca:
        27:3d:47:55:96:c7:1f:d1:df:1b:1b:fe:bc:54:af:ac:10:6f:
        4b:ff:df:47:a9:d3:e7:44:85:8c:7c:77:97:11:78:40:e0:ce:
        1a:ca:7a:98:20:ff:36:7f:e1:37:a2:f2:f1:c4:a9:4f:68:1f:
        e6:91:fc:9d:32:61:6a:59:9a:55:09:07:e9:b1:6e:4f:22:ad:
        d9:1b:83:25:be:11:e3:54:dc:a5:f0:fb:74:5a:62:67:4f:6b:
        bb:26:fb:61:ae:76:fb:2c:26:3a:d3:1e:bf:3b:c8:bb:99:78:
        62:76:b2:76:6a:1b:91:25:c7:ee:5c:cb:51:6f:e8:24:ba:78:
        ec:3f:c3:56:90:9f:fb:0c:d7:b6:59:28:7b:49:93:f4:3f:d5:
        91:37:e5:ac:a9:d0:0b:93:6c:1b:bd:7b:27:11:6f:40:82:1d:
        0d:83:4c:f9:20:27:6e:b9:a0:9b:36:ef:db:12:fc:7c:58:f5:
        a4:bc:86:1d:66:4a:a1:40:13:1f:36:f1:4e:01:f5:02:95:69:
        47:34:3d:43:18:b2:0d:ba:f3:83:b1:27:d6:17:cf:ca
-----BEGIN CERTIFICATE-----
MIIHJzCCAw8CAgM+MA0GCSqGSIb3DQEBBQUAMDsxCzAJBgNVBAYTAkdFMRAwDgYD
VQQIEwdHZW9yZ2lhMRowGAYDVQQDExFQaWNhIFBpY2EgVGVzdCBDQTAeFw0xMTAz
MDYyMDQ1MjVaFw0yMTA0MDcyMDQ1MjVaMHcxCzAJBgNVBAYTAkdFMRAwDgYDVQQI
EwdHZW9yZ2lhMTAwLgYDVQQKDCfRgtC10YHRgtC+0LLQsNGPINC70LDQsdC+0YDQ
sNGC0L7RgNC40Y8xJDAiBgNVBAMMGzEzI+GDouGDlOGDoeGDouGDlOGDoOGDmE4x
MzCCAiIwDQYJKoZIhvcNAQEBBQADggIPADCCAgoCggIBAM4yxMn8Pp3alKiNtvAa
RUuNFFGGvMQF0zzTXxfjYH5xY1F89Fwjm9Rhx0mTBMIR1aaVJQAU8sKxA1o5MQCF
f381JeJ9AkGSzBASqG7OFdUmF8dEevG0NwFX+cmtnDGdJ6LhFemp0LtMqS2RmUxC
of02ZhoX3QyWUcrQFoNFayiLifFdO+FVGOKlK7bFrKlf9w+cOlywSjdnnnlG3H4Q
bq/9gjyaGa0tnLS4uGFralNigpcEFpjy7vThLSU52Dfp9LIeMyLFX1YRO0w0798f
/zxleRWMU2St2aE44oCroC+s0CY6sMzNKJJZaUq9ZudLFdupjK8Y5taduL5HiJy3
dchuvQESI5PON4YB/LH/1VQ4v/+sqlDUT78Lhg8Ivx5Lij/LOyE7Wg053f7x7TjR
Vv6OJ6Dyq5bnB1tJZw3jtL8sNVUV4CU4SYl5cWwSC1OrirVzP0s/OMRjdsk/2zRw
/bqnpn/hj8Ue4FkcGj/XO+amlwPS4b/ZbLVUBE8LItlDxXG3R9+jX8H0FQOtWiWv
DJvKFPPs4cQ3UGRwEOmfxzWI05NJzhg1ac5w4034BA7hiNjD9QzjIDLoTbVnIm68
OG1UZXOn5IP8LNyIJ+8ImJoxPmGQh1XkoCinE6q5Tjq3MXFubrng8cG3OD079PuO
bfjOi1Limyt8wdteO4ZH5BgVAgMBAAEwDQYJKoZIhvcNAQEFBQADggQBAFbw4Z1m
46EFxS5ziTKiSAVOzTEuMnAJTnOxxS7HzxGjdmuy2ZXFaWZAouKikQa8YjjyMIGf
/up7J5qBjg26bvpyO6HXMyWY4HQx/vq/phSP8hCpucRj2TxPwctvjX1XOrSZsk1Y
n2A/v4IuWsIOZoPLZjAeQWcbbRvVNMoA9nFpaBxOfg0aFLPsYaKcmPYX8G+2ZPe2
iEpjhsGzFkDvgCKprihO8UgaOxSptc5NeqtWE8wchhqx2Zuuk84I5rfRXL1/GZCx
OWEtBiuotQfd2fMQfp+4mzjme8bj9LobnaMdQgZTDSKap2isJRe36L5C6IYrtmhR
R4YTfoNXqmtmNTGtrM4sv4ytki5BnKl6YxoshSnasyNU3ssjDB2xI7ZM/cIp42lQ
k2rMsJ/4uFyAYbOoDUgzuH8ElOojNeApEBamtFKHNN1bDtLAA2VI7Uz70ZcE3l+z
1nhEQZV6Tv1PEoPD5biVdleDjaGWHTW2TCU+G2YHRjgibcFqIWgx4Smg7rTdoEgD
znKqKuWg7Namyh6p/C815T345vTUz+1L8GU29DzvMsgXGBhiSgZhklmAPsXAHko3
+nBowGLg7ktR7IcC5S8rSKVy8pHI/RBLpW/qkwGv2wU693wHU5jaxcB930V+PglU
uXcghblBNX0p98n29k/bvQQDjARcNX98XbZtej7vbE1EtSQNgP7kI+LsOyJBipvF
xfPTR++J6WThluZZDga6ZZgqBAXnGnuM6hbgMaMzdmL2M4cgV4WctQXMezGkzEyS
RxS7gEWQtLSeFwlSDoK9bkFTb8sjP3ZswktlU7vxjbdh1XGFC07QTfhZSLE5I9FT
h8b55GQJtDBCvWdguXc8V5CW2/Hv+jNMKIVb6zK+7cxz906cCIZAsP7dDUiJIuW4
T6viCEMIAqeKKlZAbVO3Pn1mbNwDTLaBQde2nYK0ugRE8jrG96opOk6BW3e3yPD7
ZHkw9odVEtai2LNEv3EuUt2yO9b4esUkvDx2gowLkJsfoUpoqBsdWzTQ4zAqKoo1
3a3sLVNOzFdH/xatr751Bk/d5BWxinf7vUMvRWOkT1PqXwlDyic9R1WWxx/R3xsb
/rxUr6wQb0v/30ep0+dEhYx8d5cReEDgzhrKepgg/zZ/4Tei8vHEqU9oH+aR/J0y
YWpZmlUJB+mxbk8irdkbgyW+EeNU3KXw+3RaYmdPa7sm+2GudvssJjrTHr87yLuZ
eGJ2snZqG5Elx+5cy1Fv6CS6eOw/w1aQn/sM17ZZKHtJk/Q/1ZE35ayp0AuTbBu9
eycRb0CCHQ2DTPkgJ265oJs279sS/HxY9aS8hh1mSqFAEx828U4B9QKVaUc0PUMY
sg2684OxJ9YXz8o=
-----END CERTIFICATE-----
