Certificate:
    Data:
        Version: 1 (0x0)
        Serial Number: 824 (0x338)
        Signature Algorithm: md5WithRSAEncryption
        Issuer: O=TESTNET, CN=TESTNET CA
        Validity
            Not Before: Nov 25 18:08:24 2008 GMT
            Not After : Nov 25 18:08:24 2009 GMT
        Subject: O=TESTNET, CN=6#tester6
        Subject Public Key Info:
            Public Key Algorithm: rsaEncryption
            RSA Public Key: (1024 bit)
                Modulus (1024 bit):
                    00:9e:22:94:99:93:d7:7e:d9:08:b3:e4:eb:54:c7:
                    66:17:ee:e7:a1:d5:4c:e9:3f:36:1e:72:d7:87:56:
                    1d:10:79:b9:46:20:11:ce:4d:d5:8d:15:5b:e5:58:
                    0b:11:67:96:ba:56:44:e6:2f:b3:6f:02:f2:a0:22:
                    f6:fb:ae:22:04:9e:1f:0f:0b:a0:84:8d:94:4d:b3:
                    12:00:78:bf:1a:a2:18:85:fc:45:61:37:66:df:90:
                    a9:01:33:a4:d8:a5:43:b8:82:f8:3d:2f:d7:f2:fd:
                    b0:0d:3b:fa:a0:2d:be:24:fc:fa:81:eb:26:59:3f:
                    fa:b6:57:64:1a:33:1b:3d:65
                Exponent: 65537 (0x10001)
    Signature Algorithm: md5WithRSAEncryption
        6e:35:5f:f5:b8:fb:54:ba:b7:44:d1:7f:e4:72:32:9d:06:8f:
        8f:46:e3:e1:5a:f1:e7:e2:4f:b3:55:fb:4a:37:fa:6d:c2:cf:
        43:7c:67:12:bf:c2:3a:73:d2:60:40:cc:f2:38:a9:19:4b:bf:
        3c:58:3b:98:59:d1:05:1a:1d:ce:11:9e:51:b2:f9:99:eb:65:
        38:f1:b1:95:d5:ad:fa:a1:0b:5c:70:98:19:6b:19:5f:53:62:
        58:ad:2d:0f:ed:dd:04:94:ce:81:c6:25:53:4a:7f:28:e4:9d:
        f1:6a:ce:c4:fa:2d:42:5c:8a:12:c3:b5:a8:c0:ca:bf:3b:00:
        3c:27
-----BEGIN CERTIFICATE-----
MIIBvTCCASYCAgM4MA0GCSqGSIb3DQEBBAUAMCcxEDAOBgNVBAoTB1RFU1RORVQx
EzARBgNVBAMTClRFU1RORVQgQ0EwHhcNMDgxMTI1MTgwODI0WhcNMDkxMTI1MTgw
ODI0WjAmMRAwDgYDVQQKEwdURVNUTkVUMRIwEAYDVQQDDAk2I3Rlc3RlcjYwgZ8w
DQYJKoZIhvcNAQEBBQADgY0AMIGJAoGBAJ4ilJmT137ZCLPk61THZhfu56HVTOk/
Nh5y14dWHRB5uUYgEc5N1Y0VW+VYCxFnlrpWROYvs28C8qAi9vuuIgSeHw8LoISN
lE2zEgB4vxqiGIX8RWE3Zt+QqQEzpNilQ7iC+D0v1/L9sA07+qAtviT8+oHrJlk/
+rZXZBozGz1lAgMBAAEwDQYJKoZIhvcNAQEEBQADgYEAbjVf9bj7VLq3RNF/5HIy
nQaPj0bj4Vrx5+JPs1X7Sjf6bcLPQ3xnEr/COnPSYEDM8jipGUu/PFg7mFnRBRod
zhGeUbL5metlOPGxldWt+qELXHCYGWsZX1NiWK0tD+3dBJTOgcYlU0p/KOSd8WrO
xPotQlyKEsO1qMDKvzsAPCc=
-----END CERTIFICATE-----
-----BEGIN RSA PRIVATE KEY-----
Proc-Type: 4,ENCRYPTED
DEK-Info: DES-EDE3-CBC,DEC8C14F74DCBA84

K5rfKk5EwWPz+3tUYvrLiSICvO2B/liKB9Ew5QrNrNHO7ZPNls64ksEXruApa0/l
yqVI0p6YDo+E564p4ZeI0RkrgFESUfSXJEFJbk2a/6AnlwpXbEuINSl3dCJMOpvm
4lwhqb2UFwxLqfSjcQfPN5FaBhayQ86m95nwZ07omQVxCJaZPxG+WQawXIdh4bzU
VnDjOK6AIuYQ7GgX/8Vh1r20Ix/UwACKyzFj+P+47Pr4FHQ3yRR0DmWCl4N0OQUh
WJGlTQbrTr/3gY6gNQk3hHQEobq5XDBwfEWCiuZKJZo9AKb2Px892LeFft7zpF3r
f30u+yOKhyg5Cyt30H+u4/7LcNwYf0zwtxuNgzZT+iD1DH1ZA8KkpGTH0V0ZLWhP
XlAR7zAyPQ5XllR9cMo+4JEvaAeyDEkpCa36Brh4LmoZPjEwqPwUdbiSGhtMewkO
EDoF4AZPPzBEf1oicgIxxDQnJLxeekN7TQ51JqOb6rW6mQsFFkwsfwcd1h2mJYmX
ZYBgvg9e85TdyD17dr54B5f2yQGBLtnWwmN0YuH0e94Xbrak3PY18ZhM9JXSqF6g
fBP6lCjSRN9dJSGvcPpRFbd8LJB9NsmeNYxumNw2P9Wso2W9XhEELRDHtslDN+fR
3pdlVklZKIthxSeNlPYP8OFSHPQ0I4jw8Q32PgfX9ThPmlrGa/tXjWyp1aDaNmya
Wwm+BKw/TTfTSu/XytZi2m1H6g/xc7oUtPw9XqNmw8v2xJVa2X4mFlHp6Uwv9v/J
p1yPTwv/qfhVajzi1pJEFqP2r0nJ6jxTHcLqdLLXsJnKsDoDmz3KJA==
-----END RSA PRIVATE KEY-----
